; Function Attrs: mustprogress uwtable
define noundef zeroext i1 @_ZNK32pxrInternal_v0_24__pxrReserved__17UsdSkelAnimMappereqERKS0_(ptr noundef nonnull align 8 dereferenceable(60) %0, ptr noundef nonnull align 8 dereferenceable(60) %1) local_unnamed_addr #0 align 2 {
  %3 = load i64, ptr %0, align 8
  %4 = load i64, ptr %1, align 8
  %5 = icmp eq i64 %3, %4
  br i1 %5, label %6, label %22

6:                                                ; preds = %2
  %7 = getelementptr inbounds nuw i8, ptr %0, i64 8
  %8 = load i64, ptr %7, align 8
  %9 = getelementptr inbounds nuw i8, ptr %1, i64 8
  %10 = load i64, ptr %9, align 8
  %11 = icmp eq i64 %8, %10
  br i1 %11, label %12, label %22

12:                                               ; preds = %6
  %13 = getelementptr inbounds nuw i8, ptr %0, i64 56
  %14 = load i32, ptr %13, align 8
  %15 = getelementptr inbounds nuw i8, ptr %1, i64 56
  %16 = load i32, ptr %15, align 8
  %17 = icmp eq i32 %14, %16
  br i1 %17, label %18, label %22

18:                                               ; preds = %12
  %19 = getelementptr inbounds nuw i8, ptr %0, i64 16
  %20 = getelementptr inbounds nuw i8, ptr %1, i64 16
  %21 = tail call noundef zeroext i1 @_ZNK32pxrInternal_v0_24__pxrReserved__7VtArrayIiEeqERKS1_(ptr noundef nonnull align 8 dereferenceable(40) %19, ptr noundef nonnull align 8 dereferenceable(40) %20)
  br label %22

22:                                               ; preds = %18, %12, %6, %2
  %23 = phi i1 [ false, %12 ], [ false, %6 ], [ false, %2 ], [ %21, %18 ]
  ret i1 %23
}